; ModuleID = '16/271.c'
source_filename = "16/271.c"
target datalayout = "e-m:e-p270:32:32-p271:32:32-p272:64:64-i64:64-f80:128-n8:16:32:64-S128"
target triple = "x86_64-pc-linux-gnu"

@.str = private unnamed_addr constant [3 x i8] c"%d\00", align 1
@.str.1 = private unnamed_addr constant [6 x i8] c"00001\00", align 1
@.str.2 = private unnamed_addr constant [9 x i8] c"%d%d%d%d\00", align 1
@.str.3 = private unnamed_addr constant [7 x i8] c"%d%d%d\00", align 1
@.str.4 = private unnamed_addr constant [5 x i8] c"%d%d\00", align 1

; Function Attrs: noinline nounwind uwtable
define dso_local i32 @main() #0 {
  %1 = alloca i32, align 4
  %2 = alloca i32, align 4
  %3 = alloca i32, align 4
  %4 = alloca i32, align 4
  %5 = alloca i32, align 4
  %6 = alloca i32, align 4
  store i32 0, i32* %1, align 4
  %7 = call i32 (i8*, ...) @__isoc99_scanf(i8* getelementptr inbounds ([3 x i8], [3 x i8]* @.str, i64 0, i64 0), i32* %6)
  %8 = load i32, i32* %6, align 4
  %9 = icmp eq i32 %8, 10000
  br i1 %9, label %10, label %12

10:                                               ; preds = %0
  %11 = call i32 (i8*, ...) @printf(i8* getelementptr inbounds ([6 x i8], [6 x i8]* @.str.1, i64 0, i64 0))
  br label %72

12:                                               ; preds = %0
  %13 = load i32, i32* %6, align 4
  %14 = icmp sge i32 %13, 1000
  br i1 %14, label %15, label %38

15:                                               ; preds = %12
  %16 = load i32, i32* %6, align 4
  %17 = sdiv i32 %16, 1000
  store i32 %17, i32* %5, align 4
  %18 = load i32, i32* %6, align 4
  %19 = load i32, i32* %5, align 4
  %20 = mul nsw i32 1000, %19
  %21 = sub nsw i32 %18, %20
  %22 = sdiv i32 %21, 100
  store i32 %22, i32* %4, align 4
  %23 = load i32, i32* %6, align 4
  %24 = load i32, i32* %5, align 4
  %25 = mul nsw i32 1000, %24
  %26 = sub nsw i32 %23, %25
  %27 = load i32, i32* %4, align 4
  %28 = mul nsw i32 100, %27
  %29 = sub nsw i32 %26, %28
  %30 = sdiv i32 %29, 10
  store i32 %30, i32* %3, align 4
  %31 = load i32, i32* %6, align 4
  %32 = srem i32 %31, 10
  store i32 %32, i32* %2, align 4
  %33 = load i32, i32* %2, align 4
  %34 = load i32, i32* %3, align 4
  %35 = load i32, i32* %4, align 4
  %36 = load i32, i32* %5, align 4
  %37 = call i32 (i8*, ...) @printf(i8* getelementptr inbounds ([9 x i8], [9 x i8]* @.str.2, i64 0, i64 0), i32 %33, i32 %34, i32 %35, i32 %36)
  br label %71

38:                                               ; preds = %12
  %39 = load i32, i32* %6, align 4
  %40 = icmp sge i32 %39, 100
  br i1 %40, label %41, label %55

41:                                               ; preds = %38
  %42 = load i32, i32* %6, align 4
  %43 = sdiv i32 %42, 100
  store i32 %43, i32* %4, align 4
  %44 = load i32, i32* %6, align 4
  %45 = load i32, i32* %4, align 4
  %46 = mul nsw i32 100, %45
  %47 = sub nsw i32 %44, %46
  %48 = sdiv i32 %47, 10
  store i32 %48, i32* %3, align 4
  %49 = load i32, i32* %6, align 4
  %50 = srem i32 %49, 10
  store i32 %50, i32* %2, align 4
  %51 = load i32, i32* %2, align 4
  %52 = load i32, i32* %3, align 4
  %53 = load i32, i32* %4, align 4
  %54 = call i32 (i8*, ...) @printf(i8* getelementptr inbounds ([7 x i8], [7 x i8]* @.str.3, i64 0, i64 0), i32 %51, i32 %52, i32 %53)
  br label %70

55:                                               ; preds = %38
  %56 = load i32, i32* %6, align 4
  %57 = icmp sge i32 %56, 10
  br i1 %57, label %58, label %66

58:                                               ; preds = %55
  %59 = load i32, i32* %6, align 4
  %60 = sdiv i32 %59, 10
  store i32 %60, i32* %3, align 4
  %61 = load i32, i32* %6, align 4
  %62 = srem i32 %61, 10
  store i32 %62, i32* %2, align 4
  %63 = load i32, i32* %2, align 4
  %64 = load i32, i32* %3, align 4
  %65 = call i32 (i8*, ...) @printf(i8* getelementptr inbounds ([5 x i8], [5 x i8]* @.str.4, i64 0, i64 0), i32 %63, i32 %64)
  br label %69

66:                                               ; preds = %55
  %67 = load i32, i32* %6, align 4
  %68 = call i32 (i8*, ...) @printf(i8* getelementptr inbounds ([3 x i8], [3 x i8]* @.str, i64 0, i64 0), i32 %67)
  br label %69

69:                                               ; preds = %66, %58
  br label %70

70:                                               ; preds = %69, %41
  br label %71

71:                                               ; preds = %70, %15
  br label %72

72:                                               ; preds = %71, %10
  ret i32 0
}

declare dso_local i32 @__isoc99_scanf(i8*, ...) #1

declare dso_local i32 @printf(i8*, ...) #1


!llvm.module.flags = !{!0}
!llvm.ident = !{!1}

!0 = !{i32 1, !"wchar_size", i32 4}
!1 = !{!"clang version 10.0.0-4ubuntu1 "}
