; ModuleID = 'source-C-CXX/15/271.c'
source_filename = "source-C-CXX/15/271.c"
target datalayout = "e-m:e-p270:32:32-p271:32:32-p272:64:64-i64:64-f80:128-n8:16:32:64-S128"
target triple = "x86_64-pc-linux-gnu"

@.str = private unnamed_addr constant [3 x i8] c"%d\00", align 1
@.str.1 = private unnamed_addr constant [6 x i8] c"00001\00", align 1
@.str.2 = private unnamed_addr constant [9 x i8] c"%d%d%d%d\00", align 1
@.str.3 = private unnamed_addr constant [7 x i8] c"%d%d%d\00", align 1
@.str.4 = private unnamed_addr constant [5 x i8] c"%d%d\00", align 1

; Function Attrs: nofree nounwind sspstrong uwtable
define dso_local i32 @main() local_unnamed_addr #0 {
  %1 = alloca i32, align 4
  %2 = bitcast i32* %1 to i8*
  call void @llvm.lifetime.start.p0i8(i64 4, i8* nonnull %2) #3
  %3 = call i32 (i8*, ...) @__isoc99_scanf(i8* getelementptr inbounds ([3 x i8], [3 x i8]* @.str, i64 0, i64 0), i32* nonnull %1)
  %4 = load i32, i32* %1, align 4, !tbaa !5
  %5 = icmp eq i32 %4, 10000
  br i1 %5, label %6, label %8

6:                                                ; preds = %0
  %7 = call i32 (i8*, ...) @printf(i8* nonnull dereferenceable(1) getelementptr inbounds ([6 x i8], [6 x i8]* @.str.1, i64 0, i64 0))
  br label %45

8:                                                ; preds = %0
  %9 = icmp sgt i32 %4, 999
  br i1 %9, label %10, label %20

10:                                               ; preds = %8
  %11 = udiv i32 %4, 1000
  %12 = mul nsw i32 %11, -1000
  %13 = add nsw i32 %12, %4
  %14 = sdiv i32 %13, 100
  %15 = mul nsw i32 %14, -100
  %16 = add i32 %15, %13
  %17 = sdiv i32 %16, 10
  %18 = urem i32 %4, 10
  %19 = call i32 (i8*, ...) @printf(i8* nonnull dereferenceable(1) getelementptr inbounds ([9 x i8], [9 x i8]* @.str.2, i64 0, i64 0), i32 %18, i32 %17, i32 %14, i32 %11)
  br label %45

20:                                               ; preds = %8
  %21 = icmp sgt i32 %4, 99
  br i1 %21, label %22, label %34

22:                                               ; preds = %20
  %23 = trunc i32 %4 to i16
  %24 = udiv i16 %23, 100
  %25 = zext i16 %24 to i32
  %26 = mul nsw i32 %25, -100
  %27 = add nsw i32 %26, %4
  %28 = trunc i32 %27 to i16
  %29 = sdiv i16 %28, 10
  %30 = sext i16 %29 to i32
  %31 = urem i16 %23, 10
  %32 = zext i16 %31 to i32
  %33 = call i32 (i8*, ...) @printf(i8* nonnull dereferenceable(1) getelementptr inbounds ([7 x i8], [7 x i8]* @.str.3, i64 0, i64 0), i32 %32, i32 %30, i32 %25)
  br label %45

34:                                               ; preds = %20
  %35 = icmp sgt i32 %4, 9
  br i1 %35, label %36, label %43

36:                                               ; preds = %34
  %37 = trunc i32 %4 to i8
  %38 = udiv i8 %37, 10
  %39 = zext i8 %38 to i32
  %40 = urem i8 %37, 10
  %41 = zext i8 %40 to i32
  %42 = call i32 (i8*, ...) @printf(i8* nonnull dereferenceable(1) getelementptr inbounds ([5 x i8], [5 x i8]* @.str.4, i64 0, i64 0), i32 %41, i32 %39)
  br label %45

43:                                               ; preds = %34
  %44 = call i32 (i8*, ...) @printf(i8* nonnull dereferenceable(1) getelementptr inbounds ([3 x i8], [3 x i8]* @.str, i64 0, i64 0), i32 %4)
  br label %45

45:                                               ; preds = %10, %36, %43, %22, %6
  call void @llvm.lifetime.end.p0i8(i64 4, i8* nonnull %2) #3
  ret i32 0
}

; Function Attrs: argmemonly mustprogress nofree nosync nounwind willreturn
declare void @llvm.lifetime.start.p0i8(i64 immarg, i8* nocapture) #1

; Function Attrs: nofree nounwind
declare noundef i32 @__isoc99_scanf(i8* nocapture noundef readonly, ...) local_unnamed_addr #2

; Function Attrs: nofree nounwind
declare noundef i32 @printf(i8* nocapture noundef readonly, ...) local_unnamed_addr #2

; Function Attrs: argmemonly mustprogress nofree nosync nounwind willreturn
declare void @llvm.lifetime.end.p0i8(i64 immarg, i8* nocapture) #1


!llvm.module.flags = !{!0, !1, !2, !3}
!llvm.ident = !{!4}

!0 = !{i32 1, !"wchar_size", i32 4}
!1 = !{i32 7, !"PIC Level", i32 2}
!2 = !{i32 7, !"PIE Level", i32 2}
!3 = !{i32 7, !"uwtable", i32 1}
!4 = !{!"clang version 13.0.0"}
!5 = !{!6, !6, i64 0}
!6 = !{!"int", !7, i64 0}
!7 = !{!"omnipotent char", !8, i64 0}
!8 = !{!"Simple C/C++ TBAA"}
